target datalayout = "e-m:e-p270:32:32-p271:32:32-p272:64:64-i64:64-i128:128-f80:128-n8:16:32:64-S128"
target triple = "x86_64-pc-linux-gnu"

%struct.UriTextRangeStructA = type { ptr, ptr }
%struct.UriUriStructA = type { %struct.UriTextRangeStructA, %struct.UriTextRangeStructA, %struct.UriTextRangeStructA, %struct.UriHostDataStructA, %struct.UriTextRangeStructA, ptr, ptr, %struct.UriTextRangeStructA, %struct.UriTextRangeStructA, i32, i32, ptr }
%struct.UriHostDataStructA = type { ptr, ptr, %struct.UriTextRangeStructA }
%struct.UriMemoryManagerStruct = type { ptr, ptr, ptr, ptr, ptr, ptr }

; Function Attrs: nounwind uwtable
define i32 @uriCopyAuthorityA(ptr noundef %0, ptr noundef %1, ptr noundef %2) #0 {
  %4 = alloca i32, align 4
  %5 = alloca ptr, align 8
  %6 = alloca ptr, align 8
  %7 = alloca ptr, align 8
  store ptr %0, ptr %5, align 8, !tbaa !3
  store ptr %1, ptr %6, align 8, !tbaa !3
  store ptr %2, ptr %7, align 8, !tbaa !16
  %8 = load ptr, ptr %5, align 8, !tbaa !3
  %9 = getelementptr inbounds nuw %struct.UriUriStructA, ptr %8, i32 0, i32 1
  %10 = load ptr, ptr %6, align 8, !tbaa !3
  %11 = getelementptr inbounds nuw %struct.UriUriStructA, ptr %10, i32 0, i32 1
  call void @llvm.memcpy.p0.p0.i64(ptr align 8 %9, ptr align 8 %11, i64 16, i1 false), !tbaa.struct !45
  %12 = load ptr, ptr %5, align 8, !tbaa !3
  %13 = getelementptr inbounds nuw %struct.UriUriStructA, ptr %12, i32 0, i32 2
  %14 = load ptr, ptr %6, align 8, !tbaa !3
  %15 = getelementptr inbounds nuw %struct.UriUriStructA, ptr %14, i32 0, i32 2
  call void @llvm.memcpy.p0.p0.i64(ptr align 8 %13, ptr align 8 %15, i64 16, i1 false), !tbaa.struct !45
  %16 = load ptr, ptr %6, align 8, !tbaa !3
  %17 = getelementptr inbounds nuw %struct.UriUriStructA, ptr %16, i32 0, i32 3
  %18 = getelementptr inbounds nuw %struct.UriHostDataStructA, ptr %17, i32 0, i32 0
  %19 = load ptr, ptr %18, align 8, !tbaa !41
  %20 = icmp ne ptr %19, null
  br i1 %20, label %21, label %56

21:                                               ; preds = %3
  %22 = load ptr, ptr %7, align 8, !tbaa !16
  %23 = getelementptr inbounds nuw %struct.UriMemoryManagerStruct, ptr %22, i32 0, i32 0
  %24 = load ptr, ptr %23, align 8, !tbaa !44
  %25 = load ptr, ptr %7, align 8, !tbaa !16
  %26 = call ptr %24(ptr noundef %25, i64 noundef 4)
  %27 = load ptr, ptr %5, align 8, !tbaa !3
  %28 = getelementptr inbounds nuw %struct.UriUriStructA, ptr %27, i32 0, i32 3
  %29 = getelementptr inbounds nuw %struct.UriHostDataStructA, ptr %28, i32 0, i32 0
  store ptr %26, ptr %29, align 8, !tbaa !41
  %30 = load ptr, ptr %5, align 8, !tbaa !3
  %31 = getelementptr inbounds nuw %struct.UriUriStructA, ptr %30, i32 0, i32 3
  %32 = getelementptr inbounds nuw %struct.UriHostDataStructA, ptr %31, i32 0, i32 0
  %33 = load ptr, ptr %32, align 8, !tbaa !41
  %34 = icmp eq ptr %33, null
  br i1 %34, label %35, label %36

35:                                               ; preds = %21
  store i32 0, ptr %4, align 4
  br label %116

36:                                               ; preds = %21
  %37 = load ptr, ptr %5, align 8, !tbaa !3
  %38 = getelementptr inbounds nuw %struct.UriUriStructA, ptr %37, i32 0, i32 3
  %39 = getelementptr inbounds nuw %struct.UriHostDataStructA, ptr %38, i32 0, i32 0
  %40 = load ptr, ptr %39, align 8, !tbaa !41
  %41 = load ptr, ptr %6, align 8, !tbaa !3
  %42 = getelementptr inbounds nuw %struct.UriUriStructA, ptr %41, i32 0, i32 3
  %43 = getelementptr inbounds nuw %struct.UriHostDataStructA, ptr %42, i32 0, i32 0
  %44 = load ptr, ptr %43, align 8, !tbaa !41
  call void @llvm.memcpy.p0.p0.i64(ptr align 1 %40, ptr align 1 %44, i64 4, i1 false), !tbaa.struct !48
  %45 = load ptr, ptr %5, align 8, !tbaa !3
  %46 = getelementptr inbounds nuw %struct.UriUriStructA, ptr %45, i32 0, i32 3
  %47 = getelementptr inbounds nuw %struct.UriHostDataStructA, ptr %46, i32 0, i32 1
  store ptr null, ptr %47, align 8, !tbaa !42
  %48 = load ptr, ptr %5, align 8, !tbaa !3
  %49 = getelementptr inbounds nuw %struct.UriUriStructA, ptr %48, i32 0, i32 3
  %50 = getelementptr inbounds nuw %struct.UriHostDataStructA, ptr %49, i32 0, i32 2
  %51 = getelementptr inbounds nuw %struct.UriTextRangeStructA, ptr %50, i32 0, i32 0
  store ptr null, ptr %51, align 8, !tbaa !43
  %52 = load ptr, ptr %5, align 8, !tbaa !3
  %53 = getelementptr inbounds nuw %struct.UriUriStructA, ptr %52, i32 0, i32 3
  %54 = getelementptr inbounds nuw %struct.UriHostDataStructA, ptr %53, i32 0, i32 2
  %55 = getelementptr inbounds nuw %struct.UriTextRangeStructA, ptr %54, i32 0, i32 1
  store ptr null, ptr %55, align 8, !tbaa !49
  br label %111

56:                                               ; preds = %3
  %57 = load ptr, ptr %6, align 8, !tbaa !3
  %58 = getelementptr inbounds nuw %struct.UriUriStructA, ptr %57, i32 0, i32 3
  %59 = getelementptr inbounds nuw %struct.UriHostDataStructA, ptr %58, i32 0, i32 1
  %60 = load ptr, ptr %59, align 8, !tbaa !42
  %61 = icmp ne ptr %60, null
  br i1 %61, label %62, label %97

62:                                               ; preds = %56
  %63 = load ptr, ptr %5, align 8, !tbaa !3
  %64 = getelementptr inbounds nuw %struct.UriUriStructA, ptr %63, i32 0, i32 3
  %65 = getelementptr inbounds nuw %struct.UriHostDataStructA, ptr %64, i32 0, i32 0
  store ptr null, ptr %65, align 8, !tbaa !41
  %66 = load ptr, ptr %7, align 8, !tbaa !16
  %67 = getelementptr inbounds nuw %struct.UriMemoryManagerStruct, ptr %66, i32 0, i32 0
  %68 = load ptr, ptr %67, align 8, !tbaa !44
  %69 = load ptr, ptr %7, align 8, !tbaa !16
  %70 = call ptr %68(ptr noundef %69, i64 noundef 16)
  %71 = load ptr, ptr %5, align 8, !tbaa !3
  %72 = getelementptr inbounds nuw %struct.UriUriStructA, ptr %71, i32 0, i32 3
  %73 = getelementptr inbounds nuw %struct.UriHostDataStructA, ptr %72, i32 0, i32 1
  store ptr %70, ptr %73, align 8, !tbaa !42
  %74 = load ptr, ptr %5, align 8, !tbaa !3
  %75 = getelementptr inbounds nuw %struct.UriUriStructA, ptr %74, i32 0, i32 3
  %76 = getelementptr inbounds nuw %struct.UriHostDataStructA, ptr %75, i32 0, i32 1
  %77 = load ptr, ptr %76, align 8, !tbaa !42
  %78 = icmp eq ptr %77, null
  br i1 %78, label %79, label %80

79:                                               ; preds = %62
  store i32 0, ptr %4, align 4
  br label %116

80:                                               ; preds = %62
  %81 = load ptr, ptr %5, align 8, !tbaa !3
  %82 = getelementptr inbounds nuw %struct.UriUriStructA, ptr %81, i32 0, i32 3
  %83 = getelementptr inbounds nuw %struct.UriHostDataStructA, ptr %82, i32 0, i32 1
  %84 = load ptr, ptr %83, align 8, !tbaa !42
  %85 = load ptr, ptr %6, align 8, !tbaa !3
  %86 = getelementptr inbounds nuw %struct.UriUriStructA, ptr %85, i32 0, i32 3
  %87 = getelementptr inbounds nuw %struct.UriHostDataStructA, ptr %86, i32 0, i32 1
  %88 = load ptr, ptr %87, align 8, !tbaa !42
  call void @llvm.memcpy.p0.p0.i64(ptr align 1 %84, ptr align 1 %88, i64 16, i1 false), !tbaa.struct !50
  %89 = load ptr, ptr %5, align 8, !tbaa !3
  %90 = getelementptr inbounds nuw %struct.UriUriStructA, ptr %89, i32 0, i32 3
  %91 = getelementptr inbounds nuw %struct.UriHostDataStructA, ptr %90, i32 0, i32 2
  %92 = getelementptr inbounds nuw %struct.UriTextRangeStructA, ptr %91, i32 0, i32 0
  store ptr null, ptr %92, align 8, !tbaa !43
  %93 = load ptr, ptr %5, align 8, !tbaa !3
  %94 = getelementptr inbounds nuw %struct.UriUriStructA, ptr %93, i32 0, i32 3
  %95 = getelementptr inbounds nuw %struct.UriHostDataStructA, ptr %94, i32 0, i32 2
  %96 = getelementptr inbounds nuw %struct.UriTextRangeStructA, ptr %95, i32 0, i32 1
  store ptr null, ptr %96, align 8, !tbaa !49
  br label %110

97:                                               ; preds = %56
  %98 = load ptr, ptr %5, align 8, !tbaa !3
  %99 = getelementptr inbounds nuw %struct.UriUriStructA, ptr %98, i32 0, i32 3
  %100 = getelementptr inbounds nuw %struct.UriHostDataStructA, ptr %99, i32 0, i32 0
  store ptr null, ptr %100, align 8, !tbaa !41
  %101 = load ptr, ptr %5, align 8, !tbaa !3
  %102 = getelementptr inbounds nuw %struct.UriUriStructA, ptr %101, i32 0, i32 3
  %103 = getelementptr inbounds nuw %struct.UriHostDataStructA, ptr %102, i32 0, i32 1
  store ptr null, ptr %103, align 8, !tbaa !42
  %104 = load ptr, ptr %5, align 8, !tbaa !3
  %105 = getelementptr inbounds nuw %struct.UriUriStructA, ptr %104, i32 0, i32 3
  %106 = getelementptr inbounds nuw %struct.UriHostDataStructA, ptr %105, i32 0, i32 2
  %107 = load ptr, ptr %6, align 8, !tbaa !3
  %108 = getelementptr inbounds nuw %struct.UriUriStructA, ptr %107, i32 0, i32 3
  %109 = getelementptr inbounds nuw %struct.UriHostDataStructA, ptr %108, i32 0, i32 2
  call void @llvm.memcpy.p0.p0.i64(ptr align 8 %106, ptr align 8 %109, i64 16, i1 false), !tbaa.struct !45
  br label %110

110:                                              ; preds = %97, %80
  br label %111

111:                                              ; preds = %110, %36
  %112 = load ptr, ptr %5, align 8, !tbaa !3
  %113 = getelementptr inbounds nuw %struct.UriUriStructA, ptr %112, i32 0, i32 4
  %114 = load ptr, ptr %6, align 8, !tbaa !3
  %115 = getelementptr inbounds nuw %struct.UriUriStructA, ptr %114, i32 0, i32 4
  call void @llvm.memcpy.p0.p0.i64(ptr align 8 %113, ptr align 8 %115, i64 16, i1 false), !tbaa.struct !45
  store i32 1, ptr %4, align 4
  br label %116

116:                                              ; preds = %111, %79, %35
  %117 = load i32, ptr %4, align 4
  ret i32 %117
}