; Function Attrs: nounwind uwtable
define range(i32 0, 2) i32 @uriCopyAuthorityA(ptr noundef writeonly captures(none) initializes((16, 56)) %0, ptr noundef readonly captures(none) %1, ptr noundef %2) local_unnamed_addr #4 {
  %4 = getelementptr inbounds nuw i8, ptr %0, i64 16
  %5 = getelementptr inbounds nuw i8, ptr %1, i64 16
  tail call void @llvm.memcpy.p0.p0.i64(ptr noundef nonnull align 8 dereferenceable(16) %4, ptr noundef nonnull align 8 dereferenceable(16) %5, i64 16, i1 false), !tbaa.struct !36
  %6 = getelementptr inbounds nuw i8, ptr %0, i64 32
  %7 = getelementptr inbounds nuw i8, ptr %1, i64 32
  tail call void @llvm.memcpy.p0.p0.i64(ptr noundef nonnull align 8 dereferenceable(16) %6, ptr noundef nonnull align 8 dereferenceable(16) %7, i64 16, i1 false), !tbaa.struct !36
  %8 = getelementptr inbounds nuw i8, ptr %1, i64 48
  %9 = load ptr, ptr %8, align 8, !tbaa !29
  %.not = icmp eq ptr %9, null
  br i1 %.not, label %19, label %10

10:                                               ; preds = %3
  %11 = load ptr, ptr %2, align 8, !tbaa !35
  %12 = tail call ptr %11(ptr noundef nonnull %2, i64 noundef 4) #11
  %13 = getelementptr inbounds nuw i8, ptr %0, i64 48
  store ptr %12, ptr %13, align 8, !tbaa !29
  %14 = icmp eq ptr %12, null
  br i1 %14, label %37, label %15

15:                                               ; preds = %10
  %16 = load ptr, ptr %8, align 8, !tbaa !29
  %17 = load i32, ptr %16, align 1, !tbaa !22
  store i32 %17, ptr %12, align 1, !tbaa !22
  %18 = getelementptr inbounds nuw i8, ptr %0, i64 56
  tail call void @llvm.memset.p0.i64(ptr noundef nonnull align 8 dereferenceable(24) %18, i8 0, i64 24, i1 false)
  br label %34

19:                                               ; preds = %3
  %20 = getelementptr inbounds nuw i8, ptr %1, i64 56
  %21 = load ptr, ptr %20, align 8, !tbaa !30
  %.not32 = icmp eq ptr %21, null
  %22 = getelementptr inbounds nuw i8, ptr %0, i64 48
  br i1 %.not32, label %31, label %23

23:                                               ; preds = %19
  store ptr null, ptr %22, align 8, !tbaa !29
  %24 = load ptr, ptr %2, align 8, !tbaa !35
  %25 = tail call ptr %24(ptr noundef nonnull %2, i64 noundef 16) #11
  %26 = getelementptr inbounds nuw i8, ptr %0, i64 56
  store ptr %25, ptr %26, align 8, !tbaa !30
  %27 = icmp eq ptr %25, null
  br i1 %27, label %37, label %28

28:                                               ; preds = %23
  %29 = load ptr, ptr %20, align 8, !tbaa !30
  tail call void @llvm.memcpy.p0.p0.i64(ptr noundef nonnull align 1 dereferenceable(16) %25, ptr noundef nonnull align 1 dereferenceable(16) %29, i64 16, i1 false), !tbaa.struct !40
  %30 = getelementptr inbounds nuw i8, ptr %0, i64 64
  tail call void @llvm.memset.p0.i64(ptr noundef nonnull align 8 dereferenceable(16) %30, i8 0, i64 16, i1 false)
  br label %34

31:                                               ; preds = %19
  %32 = getelementptr inbounds nuw i8, ptr %0, i64 64
  %33 = getelementptr inbounds nuw i8, ptr %1, i64 64
  tail call void @llvm.memset.p0.i64(ptr noundef nonnull align 8 dereferenceable(16) %22, i8 0, i64 16, i1 false)
  tail call void @llvm.memcpy.p0.p0.i64(ptr noundef nonnull align 8 dereferenceable(16) %32, ptr noundef nonnull align 8 dereferenceable(16) %33, i64 16, i1 false), !tbaa.struct !36
  br label %34

34:                                               ; preds = %28, %31, %15
  %35 = getelementptr inbounds nuw i8, ptr %0, i64 80
  %36 = getelementptr inbounds nuw i8, ptr %1, i64 80
  tail call void @llvm.memcpy.p0.p0.i64(ptr noundef nonnull align 8 dereferenceable(16) %35, ptr noundef nonnull align 8 dereferenceable(16) %36, i64 16, i1 false), !tbaa.struct !36
  br label %37

37:                                               ; preds = %23, %10, %34
  %.0 = phi i32 [ 1, %34 ], [ 0, %10 ], [ 0, %23 ]
  ret i32 %.0
}